; Function Attrs: nounwind uwtable
define internal ptr @cmath_sin(ptr readnone captures(none) %0, ptr noundef %1) #0 {
  %3 = tail call { double, double } @PyComplex_AsCComplex(ptr noundef %1) #11
  %4 = tail call ptr @PyErr_Occurred() #11
  %.not = icmp eq ptr %4, null
  br i1 %.not, label %5, label %21

5:                                                ; preds = %2
  %6 = extractvalue { double, double } %3, 1
  %7 = extractvalue { double, double } %3, 0
  %8 = tail call ptr @__errno_location() #12
  store i32 0, ptr %8, align 4, !tbaa !3
  %9 = fneg double %6
  %10 = tail call fastcc { double, double } @cmath_sinh_impl(double %9, double %7)
  %11 = load i32, ptr %8, align 4, !tbaa !3
  switch i32 %11, label %16 [
    i32 33, label %12
    i32 34, label %14
  ]

12:                                               ; preds = %5
  %13 = load ptr, ptr @PyExc_ValueError, align 8, !tbaa !9
  tail call void @PyErr_SetString(ptr noundef %13, ptr noundef nonnull @.str.25) #11
  br label %21

14:                                               ; preds = %5
  %15 = load ptr, ptr @PyExc_OverflowError, align 8, !tbaa !9
  tail call void @PyErr_SetString(ptr noundef %15, ptr noundef nonnull @.str.26) #11
  br label %21

16:                                               ; preds = %5
  %17 = extractvalue { double, double } %10, 0
  %18 = fneg double %17
  %19 = extractvalue { double, double } %10, 1
  %20 = tail call ptr @PyComplex_FromCComplex(double %19, double %18) #11
  br label %21

21:                                               ; preds = %2, %16, %14, %12
  %.0 = phi ptr [ null, %2 ], [ null, %12 ], [ null, %14 ], [ %20, %16 ]
  ret ptr %.0
}